Certificate:
    Data:
        Version: 3 (0x2)
        Serial Number: 1 (0x1)
    Signature Algorithm: sha1WithRSAEncryption
        Issuer: C=zh, ST=hz, L=zhejiang, O=konke, OU=konke, CN=*.ikonke.com/emailAddress=89571024@qq.com
        Validity
            Not Before: Jun 25 02:56:17 2015 GMT
            Not After : Jun 24 02:56:17 2016 GMT
        Subject: C=zh, ST=zhejiang, O=konke, OU=konke, CN=*.ikonke.com/emailAddress=89571024@qq.com
        Subject Public Key Info:
            Public Key Algorithm: rsaEncryption
                Public-Key: (1024 bit)
                Modulus:
                    00:d2:2e:22:5c:37:37:dd:e8:c5:03:4b:a2:d2:9f:
                    76:91:ac:19:7b:c1:f1:53:d1:9b:0f:4e:90:64:90:
                    a4:31:2b:7c:a2:72:6f:66:30:19:4d:cb:42:f3:e4:
                    dd:f0:6b:13:6b:59:9e:25:d6:ca:ce:08:2d:11:95:
                    c2:6a:35:ec:07:e5:72:d2:cf:75:aa:43:32:6b:16:
                    b6:0e:5e:ba:0f:76:bc:93:af:e3:3c:00:61:50:3a:
                    4e:a0:32:5b:5a:34:1c:51:25:19:d2:9a:90:a8:e2:
                    df:65:f1:33:1c:16:bb:5c:54:1e:41:d1:37:b6:7d:
                    38:fc:19:38:7a:b4:ae:98:a1
                Exponent: 65537 (0x10001)
        X509v3 extensions:
            X509v3 Basic Constraints: 
                CA:FALSE
            Netscape Comment: 
                OpenSSL Generated Certificate
            X509v3 Subject Key Identifier: 
                75:2D:94:35:D3:A3:3B:F7:50:29:DD:2B:59:50:35:39:1E:1F:70:2A
            X509v3 Authority Key Identifier: 
                keyid:66:ED:CC:F6:FD:A9:B7:DD:D5:4B:A3:D8:DB:13:26:E8:0E:42:17:32

    Signature Algorithm: sha1WithRSAEncryption
         75:91:e9:b0:b8:ae:af:8a:6a:6a:2d:98:06:a9:2f:ca:0e:f6:
         49:83:d3:c2:d0:10:5b:ad:00:5b:72:68:3d:b1:08:d1:9b:0d:
         bb:18:b2:80:76:29:47:a9:33:96:25:fe:ae:e1:f9:87:4c:af:
         2a:59:87:36:3f:d3:d1:b6:b9:15:9a:10:e8:e5:e8:86:4a:5e:
         af:7f:ab:28:68:d5:94:a0:7d:a7:39:e2:6b:47:cc:14:12:c2:
         f3:cb:79:97:e8:3a:a6:b2:d6:cb:f3:3c:7a:cf:fa:f6:11:68:
         eb:08:51:07:28:90:21:57:a5:22:19:db:f8:a1:25:6e:5f:e1:
         35:98
-----BEGIN CERTIFICATE-----
MIIC7TCCAlagAwIBAgIBATANBgkqhkiG9w0BAQUFADCBhDELMAkGA1UEBhMCemgx
CzAJBgNVBAgMAmh6MREwDwYDVQQHDAh6aGVqaWFuZzEOMAwGA1UECgwFa29ua2Ux
DjAMBgNVBAsMBWtvbmtlMRUwEwYDVQQDDAwqLmlrb25rZS5jb20xHjAcBgkqhkiG
9w0BCQEWDzg5NTcxMDI0QHFxLmNvbTAeFw0xNTA2MjUwMjU2MTdaFw0xNjA2MjQw
MjU2MTdaMHcxCzAJBgNVBAYTAnpoMREwDwYDVQQIDAh6aGVqaWFuZzEOMAwGA1UE
CgwFa29ua2UxDjAMBgNVBAsMBWtvbmtlMRUwEwYDVQQDDAwqLmlrb25rZS5jb20x
HjAcBgkqhkiG9w0BCQEWDzg5NTcxMDI0QHFxLmNvbTCBnzANBgkqhkiG9w0BAQEF
AAOBjQAwgYkCgYEA0i4iXDc33ejFA0ui0p92kawZe8HxU9GbD06QZJCkMSt8onJv
ZjAZTctC8+Td8GsTa1meJdbKzggtEZXCajXsB+Vy0s91qkMyaxa2Dl66D3a8k6/j
PABhUDpOoDJbWjQcUSUZ0pqQqOLfZfEzHBa7XFQeQdE3tn04/Bk4erSumKECAwEA
AaN7MHkwCQYDVR0TBAIwADAsBglghkgBhvhCAQ0EHxYdT3BlblNTTCBHZW5lcmF0
ZWQgQ2VydGlmaWNhdGUwHQYDVR0OBBYEFHUtlDXTozv3UCndK1lQNTkeH3AqMB8G
A1UdIwQYMBaAFGbtzPb9qbfd1Uuj2NsTJugOQhcyMA0GCSqGSIb3DQEBBQUAA4GB
AHWR6bC4rq+KamotmAapL8oO9kmD08LQEFutAFtyaD2xCNGbDbsYsoB2KUepM5Yl
/q7h+YdMrypZhzY/09G2uRWaEOjl6IZKXq9/qyho1ZSgfac54mtHzBQSwvPLeZfo
Oqay1svzPHrP+vYRaOsIUQcokCFXpSIZ2/ihJW5f4TWY
-----END CERTIFICATE-----
-----BEGIN RSA PRIVATE KEY-----
Proc-Type: 4,ENCRYPTED
DEK-Info: DES-EDE3-CBC,F3E1A70FAB51890D

CsEU7ou+NO3qzho3c47frY54a3yZU2MyGwne5wzdh5FqEq3nD/woyaHu3AfVo8n3
jfczyGGrEvjNRJ+cfByPJ1YGmylUzhBEydsyoNEOv3hHbDnL1lXMlWshIsM2YTpr
6f0DluK8ZDJVg1Gk69aO/pbFqgkobks6OFQdR1g1sByvrx9QVsOSYL4CO0NIsxaA
EvWBLpxgVnbqe14rSrkNko1eSQYb0iv+3ER5RPw3g/y8zKU1lUnZn8LkH6p0foXs
1HQZodBwyTcouuCt4NOOLAyTxL8c4ZjAC/80vODEL4Wp7uHR/uHX5uz0Z9pDcwlL
1vekXC+Ub+bbj3IwJfYfITe72EALNzwPIonyeCrgOQZh/k/qNgtwx3DzfOtCIqsW
wrmp2zx5StUZ3VtQGzGJosOZL51LLzoqV2S79ovd8WWOyEOo5bobrmnxrYN+wCwz
GhgwHuDcI9ty9hQraH11E6yxIiG1kFgI7mVJTMtykIqSpGY+VZfgonxJneSZJ5eu
qXrSyn8/mYP4t1Z0GkAoh4bYxOG4GdnZPx/gfaaEkfdP1ILo1ILbdFnpuDXvd5JS
kks0+shhyJ4Zv5uVxJ8jXuQyFgD8Jh2xDfiOeApat+gKamoByCAg04ok1mNuxBxz
cq0Xs+dGWxXdAyaSzMaNRvs/NyWZRoGZStuVHoEaRdZSp4PZrYRaS9CDLmkrU4nD
Bx7ep9fv9N0RwMS2zG1kK4uB9QarKHBDb8VsM/YeJjM554qIeu7cuIPQjNnWYurZ
WOZ8eI15oKO0My51ludKgE4m/f/BfkFD55xATicMJ58=
-----END RSA PRIVATE KEY-----
